; Function Attrs: nounwind uwtable
define internal i32 @ftp_connect(ptr noundef %0, ptr noundef initializes((0, 1)) %1) #0 {
  %3 = getelementptr inbounds nuw i8, ptr %0, i64 24
  %4 = load ptr, ptr %3, align 8, !tbaa !105
  %5 = getelementptr inbounds nuw i8, ptr %4, i64 1088
  store i8 0, ptr %1, align 1, !tbaa !106
  tail call void @Curl_conncontrol(ptr noundef %4, i32 noundef 0) #10
  %6 = getelementptr inbounds nuw i8, ptr %4, i64 1144
  store i64 120000, ptr %6, align 8, !tbaa !150
  %7 = getelementptr inbounds nuw i8, ptr %4, i64 1232
  store ptr @ftp_statemachine, ptr %7, align 8, !tbaa !162
  %8 = getelementptr inbounds nuw i8, ptr %4, i64 1240
  store ptr @ftp_endofresp, ptr %8, align 8, !tbaa !163
  %9 = tail call zeroext i1 @Curl_conn_is_ssl(ptr noundef %4, i32 noundef 0) #10
  br i1 %9, label %10, label %16

10:                                               ; preds = %2
  %11 = tail call i32 @Curl_conn_connect(ptr noundef nonnull %0, i32 noundef 0, i1 noundef zeroext true, ptr noundef nonnull %1) #10
  %.not = icmp eq i32 %11, 0
  br i1 %.not, label %12, label %45

12:                                               ; preds = %10
  %13 = getelementptr inbounds nuw i8, ptr %4, i64 952
  %14 = load i64, ptr %13, align 8
  %15 = or i64 %14, 262144
  store i64 %15, ptr %13, align 8
  br label %16

16:                                               ; preds = %12, %2
  tail call void @Curl_pp_init(ptr noundef nonnull %5) #10
  %17 = load ptr, ptr %3, align 8, !tbaa !105
  %18 = getelementptr inbounds nuw i8, ptr %17, i64 1358
  %19 = load i8, ptr %18, align 2, !tbaa !136
  %.not20 = icmp eq i8 %19, 1
  br i1 %.not20, label %_ftp_state.exit, label %20

20:                                               ; preds = %16
  %21 = getelementptr inbounds nuw i8, ptr %0, i64 2658
  %22 = load i64, ptr %21, align 2
  %23 = and i64 %22, 2147483648
  %.not.i = icmp eq i64 %23, 0
  br i1 %.not.i, label %_ftp_state.exit, label %24

24:                                               ; preds = %20
  %25 = getelementptr inbounds nuw i8, ptr %0, i64 4864
  %26 = load ptr, ptr %25, align 8, !tbaa !102
  %.not20.i = icmp eq ptr %26, null
  br i1 %.not20.i, label %33, label %27

27:                                               ; preds = %24
  %28 = getelementptr inbounds nuw i8, ptr %26, i64 8
  %29 = load i32, ptr %28, align 8, !tbaa !103
  %30 = icmp sgt i32 %29, 0
  %31 = load i32, ptr getelementptr inbounds nuw (i8, ptr @Curl_trc_feat_ftp, i64 8), align 8
  %32 = icmp sgt i32 %31, 0
  %or.cond.i = select i1 %30, i1 %32, i1 false
  br i1 %or.cond.i, label %34, label %_ftp_state.exit

33:                                               ; preds = %24
  %.old.i = load i32, ptr getelementptr inbounds nuw (i8, ptr @Curl_trc_feat_ftp, i64 8), align 8, !tbaa !103
  %.old1.i = icmp sgt i32 %.old.i, 0
  br i1 %.old1.i, label %34, label %_ftp_state.exit

34:                                               ; preds = %33, %27
  %35 = zext i8 %19 to i64
  %36 = getelementptr inbounds nuw [35 x ptr], ptr @ftp_state_names, i64 0, i64 %35
  %37 = load ptr, ptr %36, align 8, !tbaa !7
  tail call void (ptr, ptr, ...) @Curl_trc_ftp(ptr noundef nonnull %0, ptr noundef nonnull @.str.7, ptr noundef %37, ptr noundef nonnull @.str.10) #10
  %.pre = load ptr, ptr %3, align 8, !tbaa !105
  br label %_ftp_state.exit

_ftp_state.exit:                                  ; preds = %16, %20, %27, %33, %34
  %38 = phi ptr [ %17, %16 ], [ %17, %20 ], [ %17, %27 ], [ %17, %33 ], [ %.pre, %34 ]
  store i8 1, ptr %18, align 2, !tbaa !136
  %39 = getelementptr inbounds nuw i8, ptr %38, i64 1088
  %40 = tail call i32 @Curl_pp_statemach(ptr noundef nonnull %0, ptr noundef nonnull %39, i1 noundef zeroext false, i1 noundef zeroext false) #10
  %41 = getelementptr inbounds nuw i8, ptr %38, i64 1358
  %42 = load i8, ptr %41, align 2, !tbaa !136
  %43 = icmp eq i8 %42, 0
  %44 = zext i1 %43 to i8
  store i8 %44, ptr %1, align 1, !tbaa !106
  br label %45

45:                                               ; preds = %10, %_ftp_state.exit
  %.0 = phi i32 [ %40, %_ftp_state.exit ], [ %11, %10 ]
  ret i32 %.0
}